; Listing generated by Microsoft (R) Optimizing Compiler Version 16.00.30319.01 

	TITLE	D:\MyCodes\ChaosFighter\trunk\ChaosFighter\HGEGame\MonsterFactory\AllMonster\Melissa.cpp
	.686P
	.XMM
	include listing.inc
	.model	flat

INCLUDELIB MSVCRTD
INCLUDELIB OLDNAMES

PUBLIC	?value@?$integral_constant@_N$0A@@tr1@std@@2_NB	; std::tr1::integral_constant<bool,0>::value
PUBLIC	?value@?$integral_constant@_N$00@tr1@std@@2_NB	; std::tr1::integral_constant<bool,1>::value
PUBLIC	?value@?$integral_constant@I$0A@@tr1@std@@2IB	; std::tr1::integral_constant<unsigned int,0>::value
PUBLIC	?_Rank@?$_Arithmetic_traits@_N@std@@2HB		; std::_Arithmetic_traits<bool>::_Rank
PUBLIC	?_Rank@?$_Arithmetic_traits@D@std@@2HB		; std::_Arithmetic_traits<char>::_Rank
PUBLIC	?_Rank@?$_Arithmetic_traits@C@std@@2HB		; std::_Arithmetic_traits<signed char>::_Rank
PUBLIC	?_Rank@?$_Arithmetic_traits@E@std@@2HB		; std::_Arithmetic_traits<unsigned char>::_Rank
PUBLIC	?_Rank@?$_Arithmetic_traits@F@std@@2HB		; std::_Arithmetic_traits<short>::_Rank
PUBLIC	?_Rank@?$_Arithmetic_traits@G@std@@2HB		; std::_Arithmetic_traits<unsigned short>::_Rank
PUBLIC	?_Rank@?$_Arithmetic_traits@H@std@@2HB		; std::_Arithmetic_traits<int>::_Rank
PUBLIC	?_Rank@?$_Arithmetic_traits@I@std@@2HB		; std::_Arithmetic_traits<unsigned int>::_Rank
PUBLIC	?_Rank@?$_Arithmetic_traits@J@std@@2HB		; std::_Arithmetic_traits<long>::_Rank
PUBLIC	?_Rank@?$_Arithmetic_traits@K@std@@2HB		; std::_Arithmetic_traits<unsigned long>::_Rank
PUBLIC	?_Rank@?$_Arithmetic_traits@_J@std@@2HB		; std::_Arithmetic_traits<__int64>::_Rank
PUBLIC	?_Rank@?$_Arithmetic_traits@_K@std@@2HB		; std::_Arithmetic_traits<unsigned __int64>::_Rank
PUBLIC	?_Rank@?$_Arithmetic_traits@M@std@@2HB		; std::_Arithmetic_traits<float>::_Rank
PUBLIC	?_Rank@?$_Arithmetic_traits@N@std@@2HB		; std::_Arithmetic_traits<double>::_Rank
PUBLIC	?_Rank@?$_Arithmetic_traits@O@std@@2HB		; std::_Arithmetic_traits<long double>::_Rank
CONST	SEGMENT
_MeterPerPixel DD 03bc985f0r			; 0.00615
CONST	ENDS
;	COMDAT ?_Rank@?$_Arithmetic_traits@O@std@@2HB
CONST	SEGMENT
?_Rank@?$_Arithmetic_traits@O@std@@2HB DD 09H		; std::_Arithmetic_traits<long double>::_Rank
CONST	ENDS
;	COMDAT ?_Rank@?$_Arithmetic_traits@N@std@@2HB
CONST	SEGMENT
?_Rank@?$_Arithmetic_traits@N@std@@2HB DD 08H		; std::_Arithmetic_traits<double>::_Rank
CONST	ENDS
;	COMDAT ?_Rank@?$_Arithmetic_traits@M@std@@2HB
CONST	SEGMENT
?_Rank@?$_Arithmetic_traits@M@std@@2HB DD 07H		; std::_Arithmetic_traits<float>::_Rank
CONST	ENDS
;	COMDAT ?_Rank@?$_Arithmetic_traits@_K@std@@2HB
CONST	SEGMENT
?_Rank@?$_Arithmetic_traits@_K@std@@2HB DD 06H		; std::_Arithmetic_traits<unsigned __int64>::_Rank
CONST	ENDS
;	COMDAT ?_Rank@?$_Arithmetic_traits@_J@std@@2HB
CONST	SEGMENT
?_Rank@?$_Arithmetic_traits@_J@std@@2HB DD 06H		; std::_Arithmetic_traits<__int64>::_Rank
CONST	ENDS
;	COMDAT ?_Rank@?$_Arithmetic_traits@K@std@@2HB
CONST	SEGMENT
?_Rank@?$_Arithmetic_traits@K@std@@2HB DD 05H		; std::_Arithmetic_traits<unsigned long>::_Rank
CONST	ENDS
;	COMDAT ?_Rank@?$_Arithmetic_traits@J@std@@2HB
CONST	SEGMENT
?_Rank@?$_Arithmetic_traits@J@std@@2HB DD 05H		; std::_Arithmetic_traits<long>::_Rank
CONST	ENDS
;	COMDAT ?_Rank@?$_Arithmetic_traits@I@std@@2HB
CONST	SEGMENT
?_Rank@?$_Arithmetic_traits@I@std@@2HB DD 04H		; std::_Arithmetic_traits<unsigned int>::_Rank
CONST	ENDS
;	COMDAT ?_Rank@?$_Arithmetic_traits@H@std@@2HB
CONST	SEGMENT
?_Rank@?$_Arithmetic_traits@H@std@@2HB DD 04H		; std::_Arithmetic_traits<int>::_Rank
CONST	ENDS
;	COMDAT ?_Rank@?$_Arithmetic_traits@G@std@@2HB
CONST	SEGMENT
?_Rank@?$_Arithmetic_traits@G@std@@2HB DD 03H		; std::_Arithmetic_traits<unsigned short>::_Rank
CONST	ENDS
;	COMDAT ?_Rank@?$_Arithmetic_traits@F@std@@2HB
CONST	SEGMENT
?_Rank@?$_Arithmetic_traits@F@std@@2HB DD 03H		; std::_Arithmetic_traits<short>::_Rank
CONST	ENDS
;	COMDAT ?_Rank@?$_Arithmetic_traits@E@std@@2HB
CONST	SEGMENT
?_Rank@?$_Arithmetic_traits@E@std@@2HB DD 02H		; std::_Arithmetic_traits<unsigned char>::_Rank
CONST	ENDS
;	COMDAT ?_Rank@?$_Arithmetic_traits@C@std@@2HB
CONST	SEGMENT
?_Rank@?$_Arithmetic_traits@C@std@@2HB DD 02H		; std::_Arithmetic_traits<signed char>::_Rank
CONST	ENDS
;	COMDAT ?_Rank@?$_Arithmetic_traits@D@std@@2HB
CONST	SEGMENT
?_Rank@?$_Arithmetic_traits@D@std@@2HB DD 02H		; std::_Arithmetic_traits<char>::_Rank
CONST	ENDS
;	COMDAT ?_Rank@?$_Arithmetic_traits@_N@std@@2HB
CONST	SEGMENT
?_Rank@?$_Arithmetic_traits@_N@std@@2HB DD 01H		; std::_Arithmetic_traits<bool>::_Rank
CONST	ENDS
;	COMDAT ?value@?$integral_constant@I$0A@@tr1@std@@2IB
CONST	SEGMENT
?value@?$integral_constant@I$0A@@tr1@std@@2IB DD 00H	; std::tr1::integral_constant<unsigned int,0>::value
CONST	ENDS
;	COMDAT ?value@?$integral_constant@_N$00@tr1@std@@2_NB
CONST	SEGMENT
?value@?$integral_constant@_N$00@tr1@std@@2_NB DB 01H	; std::tr1::integral_constant<bool,1>::value
CONST	ENDS
;	COMDAT ?value@?$integral_constant@_N$0A@@tr1@std@@2_NB
CONST	SEGMENT
?value@?$integral_constant@_N$0A@@tr1@std@@2_NB DB 00H	; std::tr1::integral_constant<bool,0>::value
CONST	ENDS
PUBLIC	??_H@YGXPAXIHP6EPAX0@Z@Z			; `vector constructor iterator'
EXTRN	__RTC_CheckEsp:PROC
EXTRN	__RTC_Shutdown:PROC
EXTRN	__RTC_InitBase:PROC
;	COMDAT rtc$TMZ
rtc$TMZ	SEGMENT
__RTC_Shutdown.rtc$TMZ DD FLAT:__RTC_Shutdown
rtc$TMZ	ENDS
;	COMDAT rtc$IMZ
rtc$IMZ	SEGMENT
__RTC_InitBase.rtc$IMZ DD FLAT:__RTC_InitBase
; Function compile flags: /Odtp /RTCsu /ZI
rtc$IMZ	ENDS
;	COMDAT ??_H@YGXPAXIHP6EPAX0@Z@Z
_TEXT	SEGMENT
___t$ = 8						; size = 4
___s$ = 12						; size = 4
___n$ = 16						; size = 4
___f$ = 20						; size = 4
??_H@YGXPAXIHP6EPAX0@Z@Z PROC				; `vector constructor iterator', COMDAT
	push	ebp
	mov	ebp, esp
	sub	esp, 192				; 000000c0H
	push	ebx
	push	esi
	push	edi
	lea	edi, DWORD PTR [ebp-192]
	mov	ecx, 48					; 00000030H
	mov	eax, -858993460				; ccccccccH
	rep stosd
$LN2@vector:
	mov	eax, DWORD PTR ___n$[ebp]
	sub	eax, 1
	mov	DWORD PTR ___n$[ebp], eax
	js	SHORT $LN3@vector
	mov	esi, esp
	mov	ecx, DWORD PTR ___t$[ebp]
	call	DWORD PTR ___f$[ebp]
	cmp	esi, esp
	call	__RTC_CheckEsp
	mov	eax, DWORD PTR ___t$[ebp]
	add	eax, DWORD PTR ___s$[ebp]
	mov	DWORD PTR ___t$[ebp], eax
	jmp	SHORT $LN2@vector
$LN3@vector:
	pop	edi
	pop	esi
	pop	ebx
	add	esp, 192				; 000000c0H
	cmp	ebp, esp
	call	__RTC_CheckEsp
	mov	esp, ebp
	pop	ebp
	ret	16					; 00000010H
??_H@YGXPAXIHP6EPAX0@Z@Z ENDP				; `vector constructor iterator'
_TEXT	ENDS
PUBLIC	__real@43c90000
PUBLIC	??_7CMelissa@@6B@				; CMelissa::`vftable'
PUBLIC	??0CMelissa@@QAE@PAVCGame@@PAVCSpriteManager@@@Z ; CMelissa::CMelissa
PUBLIC	??_R4CMelissa@@6B@				; CMelissa::`RTTI Complete Object Locator'
PUBLIC	??_R0?AVCMelissa@@@8				; CMelissa `RTTI Type Descriptor'
PUBLIC	??_R3CMelissa@@8				; CMelissa::`RTTI Class Hierarchy Descriptor'
PUBLIC	??_R2CMelissa@@8				; CMelissa::`RTTI Base Class Array'
PUBLIC	??_R1A@?0A@EA@CMelissa@@8			; CMelissa::`RTTI Base Class Descriptor at (0,-1,0,64)'
PUBLIC	??_R1A@?0A@EA@CMonster@@8			; CMonster::`RTTI Base Class Descriptor at (0,-1,0,64)'
PUBLIC	??_R0?AVCMonster@@@8				; CMonster `RTTI Type Descriptor'
PUBLIC	??_R3CMonster@@8				; CMonster::`RTTI Class Hierarchy Descriptor'
PUBLIC	??_R2CMonster@@8				; CMonster::`RTTI Base Class Array'
PUBLIC	?Update@CMelissa@@UAEXM@Z			; CMelissa::Update
EXTRN	??0CMonster@@QAE@PAVCGame@@@Z:PROC		; CMonster::CMonster
EXTRN	__fltused:DWORD
EXTRN	??_7type_info@@6B@:QWORD			; type_info::`vftable'
;	COMDAT ??_R2CMonster@@8
; File d:\mycodes\chaosfighter\trunk\chaosfighter\hgegame\monsterfactory\allmonster\melissa.cpp
rdata$r	SEGMENT
??_R2CMonster@@8 DD FLAT:??_R1A@?0A@EA@CMonster@@8	; CMonster::`RTTI Base Class Array'
rdata$r	ENDS
;	COMDAT ??_R3CMonster@@8
rdata$r	SEGMENT
??_R3CMonster@@8 DD 00H					; CMonster::`RTTI Class Hierarchy Descriptor'
	DD	00H
	DD	01H
	DD	FLAT:??_R2CMonster@@8
rdata$r	ENDS
;	COMDAT ??_R0?AVCMonster@@@8
_DATA	SEGMENT
??_R0?AVCMonster@@@8 DD FLAT:??_7type_info@@6B@		; CMonster `RTTI Type Descriptor'
	DD	00H
	DB	'.?AVCMonster@@', 00H
_DATA	ENDS
;	COMDAT ??_R1A@?0A@EA@CMonster@@8
rdata$r	SEGMENT
??_R1A@?0A@EA@CMonster@@8 DD FLAT:??_R0?AVCMonster@@@8	; CMonster::`RTTI Base Class Descriptor at (0,-1,0,64)'
	DD	00H
	DD	00H
	DD	0ffffffffH
	DD	00H
	DD	040H
	DD	FLAT:??_R3CMonster@@8
rdata$r	ENDS
;	COMDAT ??_R1A@?0A@EA@CMelissa@@8
rdata$r	SEGMENT
??_R1A@?0A@EA@CMelissa@@8 DD FLAT:??_R0?AVCMelissa@@@8	; CMelissa::`RTTI Base Class Descriptor at (0,-1,0,64)'
	DD	01H
	DD	00H
	DD	0ffffffffH
	DD	00H
	DD	040H
	DD	FLAT:??_R3CMelissa@@8
rdata$r	ENDS
;	COMDAT ??_R2CMelissa@@8
rdata$r	SEGMENT
??_R2CMelissa@@8 DD FLAT:??_R1A@?0A@EA@CMelissa@@8	; CMelissa::`RTTI Base Class Array'
	DD	FLAT:??_R1A@?0A@EA@CMonster@@8
rdata$r	ENDS
;	COMDAT ??_R3CMelissa@@8
rdata$r	SEGMENT
??_R3CMelissa@@8 DD 00H					; CMelissa::`RTTI Class Hierarchy Descriptor'
	DD	00H
	DD	02H
	DD	FLAT:??_R2CMelissa@@8
rdata$r	ENDS
;	COMDAT ??_R0?AVCMelissa@@@8
_DATA	SEGMENT
??_R0?AVCMelissa@@@8 DD FLAT:??_7type_info@@6B@		; CMelissa `RTTI Type Descriptor'
	DD	00H
	DB	'.?AVCMelissa@@', 00H
_DATA	ENDS
;	COMDAT ??_R4CMelissa@@6B@
rdata$r	SEGMENT
??_R4CMelissa@@6B@ DD 00H				; CMelissa::`RTTI Complete Object Locator'
	DD	00H
	DD	00H
	DD	FLAT:??_R0?AVCMelissa@@@8
	DD	FLAT:??_R3CMelissa@@8
rdata$r	ENDS
;	COMDAT __real@43c90000
CONST	SEGMENT
__real@43c90000 DD 043c90000r			; 402
CONST	ENDS
;	COMDAT ??_7CMelissa@@6B@
CONST	SEGMENT
??_7CMelissa@@6B@ DD FLAT:??_R4CMelissa@@6B@		; CMelissa::`vftable'
	DD	FLAT:?Update@CMelissa@@UAEXM@Z
; Function compile flags: /Odtp /RTCsu /ZI
CONST	ENDS
;	COMDAT ??0CMelissa@@QAE@PAVCGame@@PAVCSpriteManager@@@Z
_TEXT	SEGMENT
_this$ = -8						; size = 4
_pGame$ = 8						; size = 4
_pSprManager$ = 12					; size = 4
??0CMelissa@@QAE@PAVCGame@@PAVCSpriteManager@@@Z PROC	; CMelissa::CMelissa, COMDAT
; _this$ = ecx
; Line 5
	push	ebp
	mov	ebp, esp
	sub	esp, 204				; 000000ccH
	push	ebx
	push	esi
	push	edi
	push	ecx
	lea	edi, DWORD PTR [ebp-204]
	mov	ecx, 51					; 00000033H
	mov	eax, -858993460				; ccccccccH
	rep stosd
	pop	ecx
	mov	DWORD PTR _this$[ebp], ecx
	mov	eax, DWORD PTR _pGame$[ebp]
	push	eax
	mov	ecx, DWORD PTR _this$[ebp]
	call	??0CMonster@@QAE@PAVCGame@@@Z		; CMonster::CMonster
	mov	eax, DWORD PTR _this$[ebp]
	mov	DWORD PTR [eax], OFFSET ??_7CMelissa@@6B@
; Line 6
	mov	eax, DWORD PTR _this$[ebp]
	mov	BYTE PTR [eax+36], 0
; Line 7
	mov	eax, DWORD PTR _this$[ebp]
	mov	DWORD PTR [eax+16], 1
; Line 8
	mov	eax, DWORD PTR _this$[ebp]
	fld	DWORD PTR __real@43c90000
	fstp	DWORD PTR [eax+20]
; Line 9
	mov	eax, DWORD PTR _this$[ebp]
	mov	DWORD PTR [eax+24], 45			; 0000002dH
; Line 10
	mov	eax, DWORD PTR _this$[ebp]
	mov	DWORD PTR [eax+28], 3
; Line 11
	mov	eax, DWORD PTR _this$[ebp]
	mov	DWORD PTR [eax+32], 30			; 0000001eH
; Line 12
	mov	eax, DWORD PTR _this$[ebp]
	pop	edi
	pop	esi
	pop	ebx
	add	esp, 204				; 000000ccH
	cmp	ebp, esp
	call	__RTC_CheckEsp
	mov	esp, ebp
	pop	ebp
	ret	8
??0CMelissa@@QAE@PAVCGame@@PAVCSpriteManager@@@Z ENDP	; CMelissa::CMelissa
_TEXT	ENDS
PUBLIC	??1CMelissa@@QAE@XZ				; CMelissa::~CMelissa
EXTRN	??1CMonster@@QAE@XZ:PROC			; CMonster::~CMonster
; Function compile flags: /Odtp /RTCsu /ZI
;	COMDAT ??1CMelissa@@QAE@XZ
_TEXT	SEGMENT
_this$ = -8						; size = 4
??1CMelissa@@QAE@XZ PROC				; CMelissa::~CMelissa, COMDAT
; _this$ = ecx
; Line 15
	push	ebp
	mov	ebp, esp
	sub	esp, 204				; 000000ccH
	push	ebx
	push	esi
	push	edi
	push	ecx
	lea	edi, DWORD PTR [ebp-204]
	mov	ecx, 51					; 00000033H
	mov	eax, -858993460				; ccccccccH
	rep stosd
	pop	ecx
	mov	DWORD PTR _this$[ebp], ecx
	mov	eax, DWORD PTR _this$[ebp]
	mov	DWORD PTR [eax], OFFSET ??_7CMelissa@@6B@
; Line 16
	mov	ecx, DWORD PTR _this$[ebp]
	call	??1CMonster@@QAE@XZ			; CMonster::~CMonster
	pop	edi
	pop	esi
	pop	ebx
	add	esp, 204				; 000000ccH
	cmp	ebp, esp
	call	__RTC_CheckEsp
	mov	esp, ebp
	pop	ebp
	ret	0
??1CMelissa@@QAE@XZ ENDP				; CMelissa::~CMelissa
; Function compile flags: /Odtp /RTCsu /ZI
_TEXT	ENDS
;	COMDAT ?Update@CMelissa@@UAEXM@Z
_TEXT	SEGMENT
_this$ = -8						; size = 4
_fDeltaTime$ = 8					; size = 4
?Update@CMelissa@@UAEXM@Z PROC				; CMelissa::Update, COMDAT
; _this$ = ecx
; Line 19
	push	ebp
	mov	ebp, esp
	sub	esp, 204				; 000000ccH
	push	ebx
	push	esi
	push	edi
	push	ecx
	lea	edi, DWORD PTR [ebp-204]
	mov	ecx, 51					; 00000033H
	mov	eax, -858993460				; ccccccccH
	rep stosd
	pop	ecx
	mov	DWORD PTR _this$[ebp], ecx
; Line 21
	pop	edi
	pop	esi
	pop	ebx
	mov	esp, ebp
	pop	ebp
	ret	4
?Update@CMelissa@@UAEXM@Z ENDP				; CMelissa::Update
_TEXT	ENDS
END
