; Listing generated by Microsoft (R) Optimizing Compiler Version 16.00.30319.01 

	TITLE	D:\MyCodes\ChaosFighter\trunk\ChaosFighter\HGEGame\HGEFramework\ParticleSystem.cpp
	.686P
	.XMM
	include listing.inc
	.model	flat

INCLUDELIB MSVCRTD
INCLUDELIB OLDNAMES

PUBLIC	??1hgeParticleSystem@@QAE@XZ			; hgeParticleSystem::~hgeParticleSystem
PUBLIC	??0D3DXVECTOR3@@QAE@XZ				; D3DXVECTOR3::D3DXVECTOR3
PUBLIC	??0CParticleSystem@@QAE@UD3DXVECTOR3@@PBDPAVCSprite@@@Z ; CParticleSystem::CParticleSystem
EXTRN	?MoveTo@hgeParticleSystem@@QAEXMM_N@Z:PROC	; hgeParticleSystem::MoveTo
EXTRN	??0hgeParticleSystem@@QAE@PBDPAVhgeSprite@@@Z:PROC ; hgeParticleSystem::hgeParticleSystem
EXTRN	___security_cookie:DWORD
EXTRN	___CxxFrameHandler3:PROC
EXTRN	@__security_check_cookie@4:PROC
EXTRN	__fltused:DWORD
EXTRN	__RTC_CheckEsp:PROC
EXTRN	@_RTC_CheckStackVars@8:PROC
EXTRN	__RTC_Shutdown:PROC
EXTRN	__RTC_InitBase:PROC
;	COMDAT xdata$x
; File d:\mycodes\chaosfighter\trunk\chaosfighter\hgegame\hgeframework\particlesystem.cpp
xdata$x	SEGMENT
__unwindtable$??0CParticleSystem@@QAE@UD3DXVECTOR3@@PBDPAVCSprite@@@Z DD 0ffffffffH
	DD	FLAT:__unwindfunclet$??0CParticleSystem@@QAE@UD3DXVECTOR3@@PBDPAVCSprite@@@Z$0
__ehfuncinfo$??0CParticleSystem@@QAE@UD3DXVECTOR3@@PBDPAVCSprite@@@Z DD 019930522H
	DD	01H
	DD	FLAT:__unwindtable$??0CParticleSystem@@QAE@UD3DXVECTOR3@@PBDPAVCSprite@@@Z
	DD	2 DUP(00H)
	DD	2 DUP(00H)
	DD	00H
	DD	01H
xdata$x	ENDS
;	COMDAT rtc$TMZ
rtc$TMZ	SEGMENT
__RTC_Shutdown.rtc$TMZ DD FLAT:__RTC_Shutdown
rtc$TMZ	ENDS
;	COMDAT rtc$IMZ
rtc$IMZ	SEGMENT
__RTC_InitBase.rtc$IMZ DD FLAT:__RTC_InitBase
; Function compile flags: /Odtp /RTCsu /ZI
rtc$IMZ	ENDS
;	COMDAT ??0CParticleSystem@@QAE@UD3DXVECTOR3@@PBDPAVCSprite@@@Z
_TEXT	SEGMENT
tv74 = -232						; size = 4
_this$ = -20						; size = 4
__$EHRec$ = -12						; size = 12
_vPos$ = 8						; size = 12
_pFilename$ = 20					; size = 4
_pSprite$ = 24						; size = 4
??0CParticleSystem@@QAE@UD3DXVECTOR3@@PBDPAVCSprite@@@Z PROC ; CParticleSystem::CParticleSystem, COMDAT
; _this$ = ecx
; Line 5
	push	ebp
	mov	ebp, esp
	push	-1
	push	__ehhandler$??0CParticleSystem@@QAE@UD3DXVECTOR3@@PBDPAVCSprite@@@Z
	mov	eax, DWORD PTR fs:0
	push	eax
	sub	esp, 220				; 000000dcH
	push	ebx
	push	esi
	push	edi
	push	ecx
	lea	edi, DWORD PTR [ebp-232]
	mov	ecx, 55					; 00000037H
	mov	eax, -858993460				; ccccccccH
	rep stosd
	pop	ecx
	mov	eax, DWORD PTR ___security_cookie
	xor	eax, ebp
	push	eax
	lea	eax, DWORD PTR __$EHRec$[ebp]
	mov	DWORD PTR fs:0, eax
	mov	DWORD PTR _this$[ebp], ecx
	cmp	DWORD PTR _pSprite$[ebp], 0
	je	SHORT $LN3@CParticleS
	mov	eax, DWORD PTR _pSprite$[ebp]
	add	eax, 4
	mov	DWORD PTR tv74[ebp], eax
	jmp	SHORT $LN4@CParticleS
$LN3@CParticleS:
	mov	DWORD PTR tv74[ebp], 0
$LN4@CParticleS:
	mov	ecx, DWORD PTR tv74[ebp]
	push	ecx
	mov	edx, DWORD PTR _pFilename$[ebp]
	push	edx
	mov	ecx, DWORD PTR _this$[ebp]
	call	??0hgeParticleSystem@@QAE@PBDPAVhgeSprite@@@Z ; hgeParticleSystem::hgeParticleSystem
	mov	DWORD PTR __$EHRec$[ebp+8], 0
	mov	ecx, DWORD PTR _this$[ebp]
	add	ecx, 42192				; 0000a4d0H
	call	??0D3DXVECTOR3@@QAE@XZ			; D3DXVECTOR3::D3DXVECTOR3
; Line 6
	mov	eax, DWORD PTR _this$[ebp]
	add	eax, 42192				; 0000a4d0H
	mov	ecx, DWORD PTR _vPos$[ebp]
	mov	DWORD PTR [eax], ecx
	mov	edx, DWORD PTR _vPos$[ebp+4]
	mov	DWORD PTR [eax+4], edx
	mov	ecx, DWORD PTR _vPos$[ebp+8]
	mov	DWORD PTR [eax+8], ecx
; Line 7
	push	0
	mov	eax, DWORD PTR _this$[ebp]
	push	ecx
	fld	DWORD PTR [eax+42196]
	fstp	DWORD PTR [esp]
	mov	ecx, DWORD PTR _this$[ebp]
	push	ecx
	fld	DWORD PTR [ecx+42192]
	fstp	DWORD PTR [esp]
	mov	ecx, DWORD PTR _this$[ebp]
	call	?MoveTo@hgeParticleSystem@@QAEXMM_N@Z	; hgeParticleSystem::MoveTo
; Line 8
	mov	DWORD PTR __$EHRec$[ebp+8], -1
	mov	eax, DWORD PTR _this$[ebp]
	push	edx
	mov	ecx, ebp
	push	eax
	lea	edx, DWORD PTR $LN9@CParticleS
	call	@_RTC_CheckStackVars@8
	pop	eax
	pop	edx
	mov	ecx, DWORD PTR __$EHRec$[ebp]
	mov	DWORD PTR fs:0, ecx
	pop	ecx
	pop	edi
	pop	esi
	pop	ebx
	add	esp, 232				; 000000e8H
	cmp	ebp, esp
	call	__RTC_CheckEsp
	mov	esp, ebp
	pop	ebp
	ret	20					; 00000014H
	npad	3
$LN9@CParticleS:
	DD	1
	DD	$LN8@CParticleS
$LN8@CParticleS:
	DD	-32					; ffffffe0H
	DD	4
	DD	$LN6@CParticleS
$LN6@CParticleS:
	DB	95					; 0000005fH
	DB	36					; 00000024H
	DB	65					; 00000041H
	DB	114					; 00000072H
	DB	114					; 00000072H
	DB	97					; 00000061H
	DB	121					; 00000079H
	DB	80					; 00000050H
	DB	97					; 00000061H
	DB	100					; 00000064H
	DB	0
_TEXT	ENDS
;	COMDAT text$x
text$x	SEGMENT
__unwindfunclet$??0CParticleSystem@@QAE@UD3DXVECTOR3@@PBDPAVCSprite@@@Z$0:
	mov	ecx, DWORD PTR _this$[ebp]
	jmp	??1hgeParticleSystem@@QAE@XZ		; hgeParticleSystem::~hgeParticleSystem
__ehhandler$??0CParticleSystem@@QAE@UD3DXVECTOR3@@PBDPAVCSprite@@@Z:
	mov	edx, DWORD PTR [esp+8]
	lea	eax, DWORD PTR [edx+12]
	mov	ecx, DWORD PTR [edx-236]
	xor	ecx, eax
	call	@__security_check_cookie@4
	mov	eax, OFFSET __ehfuncinfo$??0CParticleSystem@@QAE@UD3DXVECTOR3@@PBDPAVCSprite@@@Z
	jmp	___CxxFrameHandler3
text$x	ENDS
??0CParticleSystem@@QAE@UD3DXVECTOR3@@PBDPAVCSprite@@@Z ENDP ; CParticleSystem::CParticleSystem
EXTRN	?hge@hgeParticleSystem@@0PAVHGE@@A:DWORD	; hgeParticleSystem::hge
; Function compile flags: /Odtp /RTCsu /ZI
;	COMDAT ??1hgeParticleSystem@@QAE@XZ
_TEXT	SEGMENT
_this$ = -8						; size = 4
??1hgeParticleSystem@@QAE@XZ PROC			; hgeParticleSystem::~hgeParticleSystem, COMDAT
; _this$ = ecx
; File d:\mycodes\chaosfighter\trunk\chaosfighter\hge gameengine lite version\include\hgeparticle.h
; Line 93
	push	ebp
	mov	ebp, esp
	sub	esp, 204				; 000000ccH
	push	ebx
	push	esi
	push	edi
	push	ecx
	lea	edi, DWORD PTR [ebp-204]
	mov	ecx, 51					; 00000033H
	mov	eax, -858993460				; ccccccccH
	rep stosd
	pop	ecx
	mov	DWORD PTR _this$[ebp], ecx
	mov	eax, DWORD PTR ?hge@hgeParticleSystem@@0PAVHGE@@A ; hgeParticleSystem::hge
	mov	ecx, DWORD PTR [eax]
	mov	esi, esp
	mov	edx, DWORD PTR ?hge@hgeParticleSystem@@0PAVHGE@@A ; hgeParticleSystem::hge
	push	edx
	mov	eax, DWORD PTR [ecx]
	call	eax
	cmp	esi, esp
	call	__RTC_CheckEsp
	pop	edi
	pop	esi
	pop	ebx
	add	esp, 204				; 000000ccH
	cmp	ebp, esp
	call	__RTC_CheckEsp
	mov	esp, ebp
	pop	ebp
	ret	0
??1hgeParticleSystem@@QAE@XZ ENDP			; hgeParticleSystem::~hgeParticleSystem
; Function compile flags: /Odtp /RTCsu /ZI
_TEXT	ENDS
;	COMDAT ??0D3DXVECTOR3@@QAE@XZ
_TEXT	SEGMENT
_this$ = -8						; size = 4
??0D3DXVECTOR3@@QAE@XZ PROC				; D3DXVECTOR3::D3DXVECTOR3, COMDAT
; _this$ = ecx
; File d:\program files\microsoft directx sdk (june 2010)\include\d3dx9math.h
; Line 165
	push	ebp
	mov	ebp, esp
	sub	esp, 204				; 000000ccH
	push	ebx
	push	esi
	push	edi
	push	ecx
	lea	edi, DWORD PTR [ebp-204]
	mov	ecx, 51					; 00000033H
	mov	eax, -858993460				; ccccccccH
	rep stosd
	pop	ecx
	mov	DWORD PTR _this$[ebp], ecx
	mov	eax, DWORD PTR _this$[ebp]
	pop	edi
	pop	esi
	pop	ebx
	mov	esp, ebp
	pop	ebp
	ret	0
??0D3DXVECTOR3@@QAE@XZ ENDP				; D3DXVECTOR3::D3DXVECTOR3
_TEXT	ENDS
PUBLIC	??0CParticleSystem@@QAE@UD3DXVECTOR3@@PAUhgeParticleSystemInfo@@@Z ; CParticleSystem::CParticleSystem
EXTRN	??0hgeParticleSystem@@QAE@PAUhgeParticleSystemInfo@@@Z:PROC ; hgeParticleSystem::hgeParticleSystem
;	COMDAT xdata$x
; File d:\mycodes\chaosfighter\trunk\chaosfighter\hgegame\hgeframework\particlesystem.cpp
xdata$x	SEGMENT
__unwindtable$??0CParticleSystem@@QAE@UD3DXVECTOR3@@PAUhgeParticleSystemInfo@@@Z DD 0ffffffffH
	DD	FLAT:__unwindfunclet$??0CParticleSystem@@QAE@UD3DXVECTOR3@@PAUhgeParticleSystemInfo@@@Z$0
__ehfuncinfo$??0CParticleSystem@@QAE@UD3DXVECTOR3@@PAUhgeParticleSystemInfo@@@Z DD 019930522H
	DD	01H
	DD	FLAT:__unwindtable$??0CParticleSystem@@QAE@UD3DXVECTOR3@@PAUhgeParticleSystemInfo@@@Z
	DD	2 DUP(00H)
	DD	2 DUP(00H)
	DD	00H
	DD	01H
; Function compile flags: /Odtp /RTCsu /ZI
xdata$x	ENDS
;	COMDAT ??0CParticleSystem@@QAE@UD3DXVECTOR3@@PAUhgeParticleSystemInfo@@@Z
_TEXT	SEGMENT
_this$ = -20						; size = 4
__$EHRec$ = -12						; size = 12
_vPos$ = 8						; size = 12
_pPsi$ = 20						; size = 4
??0CParticleSystem@@QAE@UD3DXVECTOR3@@PAUhgeParticleSystemInfo@@@Z PROC ; CParticleSystem::CParticleSystem, COMDAT
; _this$ = ecx
; Line 11
	push	ebp
	mov	ebp, esp
	push	-1
	push	__ehhandler$??0CParticleSystem@@QAE@UD3DXVECTOR3@@PAUhgeParticleSystemInfo@@@Z
	mov	eax, DWORD PTR fs:0
	push	eax
	sub	esp, 216				; 000000d8H
	push	ebx
	push	esi
	push	edi
	push	ecx
	lea	edi, DWORD PTR [ebp-228]
	mov	ecx, 54					; 00000036H
	mov	eax, -858993460				; ccccccccH
	rep stosd
	pop	ecx
	mov	eax, DWORD PTR ___security_cookie
	xor	eax, ebp
	push	eax
	lea	eax, DWORD PTR __$EHRec$[ebp]
	mov	DWORD PTR fs:0, eax
	mov	DWORD PTR _this$[ebp], ecx
	mov	eax, DWORD PTR _pPsi$[ebp]
	push	eax
	mov	ecx, DWORD PTR _this$[ebp]
	call	??0hgeParticleSystem@@QAE@PAUhgeParticleSystemInfo@@@Z ; hgeParticleSystem::hgeParticleSystem
	mov	DWORD PTR __$EHRec$[ebp+8], 0
	mov	ecx, DWORD PTR _this$[ebp]
	add	ecx, 42192				; 0000a4d0H
	call	??0D3DXVECTOR3@@QAE@XZ			; D3DXVECTOR3::D3DXVECTOR3
; Line 12
	mov	eax, DWORD PTR _this$[ebp]
	add	eax, 42192				; 0000a4d0H
	mov	ecx, DWORD PTR _vPos$[ebp]
	mov	DWORD PTR [eax], ecx
	mov	edx, DWORD PTR _vPos$[ebp+4]
	mov	DWORD PTR [eax+4], edx
	mov	ecx, DWORD PTR _vPos$[ebp+8]
	mov	DWORD PTR [eax+8], ecx
; Line 13
	push	0
	mov	eax, DWORD PTR _this$[ebp]
	push	ecx
	fld	DWORD PTR [eax+42196]
	fstp	DWORD PTR [esp]
	mov	ecx, DWORD PTR _this$[ebp]
	push	ecx
	fld	DWORD PTR [ecx+42192]
	fstp	DWORD PTR [esp]
	mov	ecx, DWORD PTR _this$[ebp]
	call	?MoveTo@hgeParticleSystem@@QAEXMM_N@Z	; hgeParticleSystem::MoveTo
; Line 14
	mov	DWORD PTR __$EHRec$[ebp+8], -1
	mov	eax, DWORD PTR _this$[ebp]
	push	edx
	mov	ecx, ebp
	push	eax
	lea	edx, DWORD PTR $LN7@CParticleS@2
	call	@_RTC_CheckStackVars@8
	pop	eax
	pop	edx
	mov	ecx, DWORD PTR __$EHRec$[ebp]
	mov	DWORD PTR fs:0, ecx
	pop	ecx
	pop	edi
	pop	esi
	pop	ebx
	add	esp, 228				; 000000e4H
	cmp	ebp, esp
	call	__RTC_CheckEsp
	mov	esp, ebp
	pop	ebp
	ret	16					; 00000010H
$LN7@CParticleS@2:
	DD	1
	DD	$LN6@CParticleS@2
$LN6@CParticleS@2:
	DD	-32					; ffffffe0H
	DD	4
	DD	$LN4@CParticleS@2
$LN4@CParticleS@2:
	DB	95					; 0000005fH
	DB	36					; 00000024H
	DB	65					; 00000041H
	DB	114					; 00000072H
	DB	114					; 00000072H
	DB	97					; 00000061H
	DB	121					; 00000079H
	DB	80					; 00000050H
	DB	97					; 00000061H
	DB	100					; 00000064H
	DB	0
_TEXT	ENDS
;	COMDAT text$x
text$x	SEGMENT
__unwindfunclet$??0CParticleSystem@@QAE@UD3DXVECTOR3@@PAUhgeParticleSystemInfo@@@Z$0:
	mov	ecx, DWORD PTR _this$[ebp]
	jmp	??1hgeParticleSystem@@QAE@XZ		; hgeParticleSystem::~hgeParticleSystem
__ehhandler$??0CParticleSystem@@QAE@UD3DXVECTOR3@@PAUhgeParticleSystemInfo@@@Z:
	mov	edx, DWORD PTR [esp+8]
	lea	eax, DWORD PTR [edx+12]
	mov	ecx, DWORD PTR [edx-232]
	xor	ecx, eax
	call	@__security_check_cookie@4
	mov	eax, OFFSET __ehfuncinfo$??0CParticleSystem@@QAE@UD3DXVECTOR3@@PAUhgeParticleSystemInfo@@@Z
	jmp	___CxxFrameHandler3
text$x	ENDS
??0CParticleSystem@@QAE@UD3DXVECTOR3@@PAUhgeParticleSystemInfo@@@Z ENDP ; CParticleSystem::CParticleSystem
PUBLIC	??0CParticleSystem@@QAE@UD3DXVECTOR3@@AAVhgeParticleSystem@@@Z ; CParticleSystem::CParticleSystem
EXTRN	??0hgeParticleSystem@@QAE@ABV0@@Z:PROC		; hgeParticleSystem::hgeParticleSystem
;	COMDAT xdata$x
xdata$x	SEGMENT
__unwindtable$??0CParticleSystem@@QAE@UD3DXVECTOR3@@AAVhgeParticleSystem@@@Z DD 0ffffffffH
	DD	FLAT:__unwindfunclet$??0CParticleSystem@@QAE@UD3DXVECTOR3@@AAVhgeParticleSystem@@@Z$0
__ehfuncinfo$??0CParticleSystem@@QAE@UD3DXVECTOR3@@AAVhgeParticleSystem@@@Z DD 019930522H
	DD	01H
	DD	FLAT:__unwindtable$??0CParticleSystem@@QAE@UD3DXVECTOR3@@AAVhgeParticleSystem@@@Z
	DD	2 DUP(00H)
	DD	2 DUP(00H)
	DD	00H
	DD	01H
; Function compile flags: /Odtp /RTCsu /ZI
xdata$x	ENDS
;	COMDAT ??0CParticleSystem@@QAE@UD3DXVECTOR3@@AAVhgeParticleSystem@@@Z
_TEXT	SEGMENT
_this$ = -20						; size = 4
__$EHRec$ = -12						; size = 12
_vPos$ = 8						; size = 12
_ps$ = 20						; size = 4
??0CParticleSystem@@QAE@UD3DXVECTOR3@@AAVhgeParticleSystem@@@Z PROC ; CParticleSystem::CParticleSystem, COMDAT
; _this$ = ecx
; Line 17
	push	ebp
	mov	ebp, esp
	push	-1
	push	__ehhandler$??0CParticleSystem@@QAE@UD3DXVECTOR3@@AAVhgeParticleSystem@@@Z
	mov	eax, DWORD PTR fs:0
	push	eax
	sub	esp, 216				; 000000d8H
	push	ebx
	push	esi
	push	edi
	push	ecx
	lea	edi, DWORD PTR [ebp-228]
	mov	ecx, 54					; 00000036H
	mov	eax, -858993460				; ccccccccH
	rep stosd
	pop	ecx
	mov	eax, DWORD PTR ___security_cookie
	xor	eax, ebp
	push	eax
	lea	eax, DWORD PTR __$EHRec$[ebp]
	mov	DWORD PTR fs:0, eax
	mov	DWORD PTR _this$[ebp], ecx
	mov	eax, DWORD PTR _ps$[ebp]
	push	eax
	mov	ecx, DWORD PTR _this$[ebp]
	call	??0hgeParticleSystem@@QAE@ABV0@@Z	; hgeParticleSystem::hgeParticleSystem
	mov	DWORD PTR __$EHRec$[ebp+8], 0
	mov	ecx, DWORD PTR _this$[ebp]
	add	ecx, 42192				; 0000a4d0H
	call	??0D3DXVECTOR3@@QAE@XZ			; D3DXVECTOR3::D3DXVECTOR3
; Line 18
	mov	eax, DWORD PTR _this$[ebp]
	add	eax, 42192				; 0000a4d0H
	mov	ecx, DWORD PTR _vPos$[ebp]
	mov	DWORD PTR [eax], ecx
	mov	edx, DWORD PTR _vPos$[ebp+4]
	mov	DWORD PTR [eax+4], edx
	mov	ecx, DWORD PTR _vPos$[ebp+8]
	mov	DWORD PTR [eax+8], ecx
; Line 19
	push	0
	mov	eax, DWORD PTR _this$[ebp]
	push	ecx
	fld	DWORD PTR [eax+42196]
	fstp	DWORD PTR [esp]
	mov	ecx, DWORD PTR _this$[ebp]
	push	ecx
	fld	DWORD PTR [ecx+42192]
	fstp	DWORD PTR [esp]
	mov	ecx, DWORD PTR _this$[ebp]
	call	?MoveTo@hgeParticleSystem@@QAEXMM_N@Z	; hgeParticleSystem::MoveTo
; Line 20
	mov	DWORD PTR __$EHRec$[ebp+8], -1
	mov	eax, DWORD PTR _this$[ebp]
	push	edx
	mov	ecx, ebp
	push	eax
	lea	edx, DWORD PTR $LN7@CParticleS@3
	call	@_RTC_CheckStackVars@8
	pop	eax
	pop	edx
	mov	ecx, DWORD PTR __$EHRec$[ebp]
	mov	DWORD PTR fs:0, ecx
	pop	ecx
	pop	edi
	pop	esi
	pop	ebx
	add	esp, 228				; 000000e4H
	cmp	ebp, esp
	call	__RTC_CheckEsp
	mov	esp, ebp
	pop	ebp
	ret	16					; 00000010H
$LN7@CParticleS@3:
	DD	1
	DD	$LN6@CParticleS@3
$LN6@CParticleS@3:
	DD	-32					; ffffffe0H
	DD	4
	DD	$LN4@CParticleS@3
$LN4@CParticleS@3:
	DB	95					; 0000005fH
	DB	36					; 00000024H
	DB	65					; 00000041H
	DB	114					; 00000072H
	DB	114					; 00000072H
	DB	97					; 00000061H
	DB	121					; 00000079H
	DB	80					; 00000050H
	DB	97					; 00000061H
	DB	100					; 00000064H
	DB	0
_TEXT	ENDS
;	COMDAT text$x
text$x	SEGMENT
__unwindfunclet$??0CParticleSystem@@QAE@UD3DXVECTOR3@@AAVhgeParticleSystem@@@Z$0:
	mov	ecx, DWORD PTR _this$[ebp]
	jmp	??1hgeParticleSystem@@QAE@XZ		; hgeParticleSystem::~hgeParticleSystem
__ehhandler$??0CParticleSystem@@QAE@UD3DXVECTOR3@@AAVhgeParticleSystem@@@Z:
	mov	edx, DWORD PTR [esp+8]
	lea	eax, DWORD PTR [edx+12]
	mov	ecx, DWORD PTR [edx-232]
	xor	ecx, eax
	call	@__security_check_cookie@4
	mov	eax, OFFSET __ehfuncinfo$??0CParticleSystem@@QAE@UD3DXVECTOR3@@AAVhgeParticleSystem@@@Z
	jmp	___CxxFrameHandler3
text$x	ENDS
??0CParticleSystem@@QAE@UD3DXVECTOR3@@AAVhgeParticleSystem@@@Z ENDP ; CParticleSystem::CParticleSystem
PUBLIC	??1CParticleSystem@@QAE@XZ			; CParticleSystem::~CParticleSystem
; Function compile flags: /Odtp /RTCsu /ZI
;	COMDAT ??1CParticleSystem@@QAE@XZ
_TEXT	SEGMENT
_this$ = -8						; size = 4
??1CParticleSystem@@QAE@XZ PROC				; CParticleSystem::~CParticleSystem, COMDAT
; _this$ = ecx
; Line 24
	push	ebp
	mov	ebp, esp
	sub	esp, 204				; 000000ccH
	push	ebx
	push	esi
	push	edi
	push	ecx
	lea	edi, DWORD PTR [ebp-204]
	mov	ecx, 51					; 00000033H
	mov	eax, -858993460				; ccccccccH
	rep stosd
	pop	ecx
	mov	DWORD PTR _this$[ebp], ecx
; Line 25
	mov	ecx, DWORD PTR _this$[ebp]
	call	??1hgeParticleSystem@@QAE@XZ		; hgeParticleSystem::~hgeParticleSystem
	pop	edi
	pop	esi
	pop	ebx
	add	esp, 204				; 000000ccH
	cmp	ebp, esp
	call	__RTC_CheckEsp
	mov	esp, ebp
	pop	ebp
	ret	0
??1CParticleSystem@@QAE@XZ ENDP				; CParticleSystem::~CParticleSystem
_TEXT	ENDS
PUBLIC	?SetPos@CParticleSystem@@QAEXUD3DXVECTOR3@@_N@Z	; CParticleSystem::SetPos
; Function compile flags: /Odtp /RTCsu /ZI
;	COMDAT ?SetPos@CParticleSystem@@QAEXUD3DXVECTOR3@@_N@Z
_TEXT	SEGMENT
_this$ = -8						; size = 4
_vPos$ = 8						; size = 12
_isMoveParticles$ = 20					; size = 1
?SetPos@CParticleSystem@@QAEXUD3DXVECTOR3@@_N@Z PROC	; CParticleSystem::SetPos, COMDAT
; _this$ = ecx
; Line 28
	push	ebp
	mov	ebp, esp
	sub	esp, 216				; 000000d8H
	push	ebx
	push	esi
	push	edi
	push	ecx
	lea	edi, DWORD PTR [ebp-216]
	mov	ecx, 54					; 00000036H
	mov	eax, -858993460				; ccccccccH
	rep stosd
	pop	ecx
	mov	DWORD PTR _this$[ebp], ecx
; Line 29
	mov	eax, DWORD PTR _this$[ebp]
	add	eax, 42192				; 0000a4d0H
	mov	ecx, DWORD PTR _vPos$[ebp]
	mov	DWORD PTR [eax], ecx
	mov	edx, DWORD PTR _vPos$[ebp+4]
	mov	DWORD PTR [eax+4], edx
	mov	ecx, DWORD PTR _vPos$[ebp+8]
	mov	DWORD PTR [eax+8], ecx
; Line 30
	movzx	eax, BYTE PTR _isMoveParticles$[ebp]
	push	eax
	mov	ecx, DWORD PTR _this$[ebp]
	push	ecx
	fld	DWORD PTR [ecx+42196]
	fstp	DWORD PTR [esp]
	mov	edx, DWORD PTR _this$[ebp]
	push	ecx
	fld	DWORD PTR [edx+42192]
	fstp	DWORD PTR [esp]
	mov	ecx, DWORD PTR _this$[ebp]
	call	?MoveTo@hgeParticleSystem@@QAEXMM_N@Z	; hgeParticleSystem::MoveTo
; Line 31
	push	edx
	mov	ecx, ebp
	push	eax
	lea	edx, DWORD PTR $LN5@SetPos
	call	@_RTC_CheckStackVars@8
	pop	eax
	pop	edx
	pop	edi
	pop	esi
	pop	ebx
	add	esp, 216				; 000000d8H
	cmp	ebp, esp
	call	__RTC_CheckEsp
	mov	esp, ebp
	pop	ebp
	ret	16					; 00000010H
	npad	2
$LN5@SetPos:
	DD	1
	DD	$LN4@SetPos
$LN4@SetPos:
	DD	-20					; ffffffecH
	DD	4
	DD	$LN3@SetPos
$LN3@SetPos:
	DB	95					; 0000005fH
	DB	36					; 00000024H
	DB	65					; 00000041H
	DB	114					; 00000072H
	DB	114					; 00000072H
	DB	97					; 00000061H
	DB	121					; 00000079H
	DB	80					; 00000050H
	DB	97					; 00000061H
	DB	100					; 00000064H
	DB	0
?SetPos@CParticleSystem@@QAEXUD3DXVECTOR3@@_N@Z ENDP	; CParticleSystem::SetPos
_TEXT	ENDS
PUBLIC	?GetPosition@hgeParticleSystem@@QBEXPAM0@Z	; hgeParticleSystem::GetPosition
PUBLIC	?GetPos@CParticleSystem@@QAE?AUD3DXVECTOR3@@XZ	; CParticleSystem::GetPos
; Function compile flags: /Odtp /RTCsu /ZI
;	COMDAT ?GetPos@CParticleSystem@@QAE?AUD3DXVECTOR3@@XZ
_TEXT	SEGMENT
_this$ = -8						; size = 4
___$ReturnUdt$ = 8					; size = 4
?GetPos@CParticleSystem@@QAE?AUD3DXVECTOR3@@XZ PROC	; CParticleSystem::GetPos, COMDAT
; _this$ = ecx
; Line 34
	push	ebp
	mov	ebp, esp
	sub	esp, 204				; 000000ccH
	push	ebx
	push	esi
	push	edi
	push	ecx
	lea	edi, DWORD PTR [ebp-204]
	mov	ecx, 51					; 00000033H
	mov	eax, -858993460				; ccccccccH
	rep stosd
	pop	ecx
	mov	DWORD PTR _this$[ebp], ecx
; Line 35
	mov	eax, DWORD PTR _this$[ebp]
	add	eax, 42196				; 0000a4d4H
	push	eax
	mov	ecx, DWORD PTR _this$[ebp]
	add	ecx, 42192				; 0000a4d0H
	push	ecx
	mov	ecx, DWORD PTR _this$[ebp]
	call	?GetPosition@hgeParticleSystem@@QBEXPAM0@Z ; hgeParticleSystem::GetPosition
; Line 36
	mov	eax, DWORD PTR _this$[ebp]
	add	eax, 42192				; 0000a4d0H
	mov	ecx, DWORD PTR ___$ReturnUdt$[ebp]
	mov	edx, DWORD PTR [eax]
	mov	DWORD PTR [ecx], edx
	mov	edx, DWORD PTR [eax+4]
	mov	DWORD PTR [ecx+4], edx
	mov	eax, DWORD PTR [eax+8]
	mov	DWORD PTR [ecx+8], eax
	mov	eax, DWORD PTR ___$ReturnUdt$[ebp]
; Line 37
	pop	edi
	pop	esi
	pop	ebx
	add	esp, 204				; 000000ccH
	cmp	ebp, esp
	call	__RTC_CheckEsp
	mov	esp, ebp
	pop	ebp
	ret	4
?GetPos@CParticleSystem@@QAE?AUD3DXVECTOR3@@XZ ENDP	; CParticleSystem::GetPos
; Function compile flags: /Odtp /RTCsu /ZI
_TEXT	ENDS
;	COMDAT ?GetPosition@hgeParticleSystem@@QBEXPAM0@Z
_TEXT	SEGMENT
_this$ = -8						; size = 4
_x$ = 8							; size = 4
_y$ = 12						; size = 4
?GetPosition@hgeParticleSystem@@QBEXPAM0@Z PROC		; hgeParticleSystem::GetPosition, COMDAT
; _this$ = ecx
; File d:\mycodes\chaosfighter\trunk\chaosfighter\hge gameengine lite version\include\hgeparticle.h
; Line 110
	push	ebp
	mov	ebp, esp
	sub	esp, 204				; 000000ccH
	push	ebx
	push	esi
	push	edi
	push	ecx
	lea	edi, DWORD PTR [ebp-204]
	mov	ecx, 51					; 00000033H
	mov	eax, -858993460				; ccccccccH
	rep stosd
	pop	ecx
	mov	DWORD PTR _this$[ebp], ecx
	mov	eax, DWORD PTR _x$[ebp]
	mov	ecx, DWORD PTR _this$[ebp]
	fld	DWORD PTR [ecx+144]
	fstp	DWORD PTR [eax]
	mov	eax, DWORD PTR _y$[ebp]
	mov	ecx, DWORD PTR _this$[ebp]
	fld	DWORD PTR [ecx+148]
	fstp	DWORD PTR [eax]
	pop	edi
	pop	esi
	pop	ebx
	mov	esp, ebp
	pop	ebp
	ret	8
?GetPosition@hgeParticleSystem@@QBEXPAM0@Z ENDP		; hgeParticleSystem::GetPosition
_TEXT	ENDS
END
